((dp0
S'code'
p1
I200
sS'html'
p2
S'<!DOCTYPE html>\r\n\r\n<html xmlns="http://www.w3.org/1999/xhtml">\r\n<head runat="server">\r\n    <meta http-equiv="Content-Type" content="text/html; charset=utf-8" />\r\n    <script src="http://www1.rmfysszc.gov.cn/Scripts/jquery-1.4.1.min.js"></script>\r\n    <link href="http://www1.rmfysszc.gov.cn/Agency/Inc/reset.css" rel="stylesheet" />\r\n    <title>\xe5\xa4\xa9\xe6\xb4\xa5\xe5\xb8\x82\xe9\xab\x98\xe7\xba\xa7\xe4\xba\xba\xe6\xb0\x91\xe6\xb3\x95\xe9\x99\xa2-\xe4\xba\xba\xe6\xb0\x91\xe6\xb3\x95\xe9\x99\xa2\xe8\xaf\x89\xe8\xae\xbc\xe8\xb5\x84\xe4\xba\xa7\xe7\xbd\x91</title>\r\n    <style type="text/css">\r\n        body {\r\n            background-color: #eeeeee;\r\n        }\r\n\r\n        .triangle_border_up {\r\n            width: 0;\r\n            height: 0;\r\n            border-width: 0 5px 5px;\r\n            border-style: solid;\r\n            border-color: transparent transparent white; /*\xe9\x80\x8f\xe6\x98\x8e \xe9\x80\x8f\xe6\x98\x8e  \xe7\x81\xb0*/\r\n            position: relative;\r\n            margin-left: 115px;\r\n            *margin-left: 0px;\r\n            margin-top: -7px;\r\n        }\r\n\r\n        .strlist {\r\n            margin: 0px auto;\r\n        }\r\n\r\n            .strlist li {\r\n                float: left;\r\n                width: 240px;\r\n                margin-top: 15px;\r\n                text-align: center;\r\n            }\r\n\r\n                .strlist li a {\r\n                    color: white;\r\n                    font-size: 14px;\r\n                }\r\n\r\n        .scolor {\r\n            margin: 0px auto;\r\n            position: absolute;\r\n            border: 2px solid rgb(165,20,8);\r\n            min-height: 20px;\r\n            width: 300px;\r\n            right: -240px;\r\n            top: 10px;\r\n            background-color: black;\r\n            z-index: 900;\r\n            display: none;\r\n            padding-top: 5px;\r\n            padding-bottom: 5px;\r\n        }\r\n\r\n        .div_link_zy {\r\n            height: 22px;\r\n            line-height: 22px;\r\n            float: left;\r\n            width: 240px;\r\n            text-align: center;\r\n            margin-top: 5px;\r\n            position: relative;\r\n        }\r\n\r\n            .div_link_zy a {\r\n                color: white;\r\n                font-size: 12px;\r\n            }\r\n\r\n            .div_link_zy div span a {\r\n                color: #373a41;\r\n                font-size: 12px;\r\n            }\r\n\r\n                .div_link_zy div span a:hover {\r\n                    text-decoration: underline;\r\n                    color: #e70012;\r\n                }\r\n\r\n        .div_link_qx {\r\n            position: absolute;\r\n            *position: relative;\r\n            /*border: 2px solid rgb(165,20,8);*/\r\n            min-height: 20px;\r\n            width: 300px;\r\n            top: 10px;\r\n            *top: 0px;\r\n            background-color: White;\r\n            z-index: 900;\r\n            padding-top: 5px;\r\n            *padding-top: 0px;\r\n            margin-top: 8px;\r\n            *margin-top: -15px;\r\n            padding-bottom: 5px;\r\n        }\r\n\r\n            .div_link_qx span {\r\n                display: block;\r\n                z-index: 1;\r\n                float: left;\r\n                width: 140px;\r\n                height: 20px;\r\n                line-height: 20px;\r\n            }\r\n\r\n\r\n        .listtr {\r\n            background-color: expression((this.sectionRowIndex%2==0)?"#e5e5e5":"white");\r\n            *background-color: expression((this.sectionRowIndex%2==0)?"#e5e5e5":"white");\r\n            background-color: expression((this.sectionRowIndex%2==0)?"#e5e5e5":"white")\\0;\r\n            background-color: expression(\'#e5e5e5,white\'.split(\',\')[rowIndex%2])\\0;\r\n        }\r\n\r\n        table tr {\r\n            line-height: 36px;\r\n        }\r\n\r\n        table th tr {\r\n            background-color: white;\r\n        }\r\n\r\n        table tr:nth-child(odd) {\r\n            background: #e5e5e5;\r\n        }\r\n\r\n        td a:hover {\r\n            color: #e70012;\r\n        }\r\n\r\n        .product{\r\n        width:283px; float:left;margin-right:20px;/*height:280px; */margin-bottom:10px; background:white;border:1px solid #ccc\r\n    }\r\n\t.product:hover{border:1px solid #a2000d}\r\n\r\n\r\n            .product:nth-child(4n) {\r\n                margin-right: 0;\r\n            }\r\n\r\n        #link1 div ul li a {\r\n            font-size: 14px;\r\n            color: #ffffff;\r\n            margin-right: 32px;\r\n        }\r\n\r\n        #link1 div ul li {\r\n            float: left;\r\n            line-height: 50px;\r\n        }\r\n\r\n        .help {\r\n            display: block;\r\n            font-size: 12px;\r\n            color: #959595;\r\n            line-height: 25px;\r\n        }\r\n\r\n        .p_img {\r\n            width: 265px;\r\n            height: 155px;\r\n            margin: 10px 10px 10px 10px;\r\n            position: relative;\r\n        }\r\n\r\n            .p_img a img {\r\n                position: relative;\r\n                width: 100%;\r\n                height: 100%;\r\n                z-index: 1;\r\n            }\r\n\r\n        .p_title {\r\n            position: absolute;\r\n            bottom: 0;\r\n            left: 0;\r\n            width: 100%;\r\n            height: 24px;\r\n            background: rgba(0,0,0,0.2) !important;\r\n            background: #f9f9f9;\r\n            z-index: 2;\r\n            line-height: 24px;\r\n            font-size: 14px;\r\n            text-indent: 10px;\r\n        }\r\n\r\n        .p_img i {\r\n            position: absolute;\r\n            right: 0;\r\n            top: 0;\r\n            width: 44px;\r\n            height: 24px;\r\n            text-align: center;\r\n            line-height: 24px;\r\n            background: #3FB51D;\r\n            color: #E6FFB4;\r\n            z-index: 3;\r\n            font-size: 12px;\r\n            font-style: normal;\r\n        }\r\n\r\n        .p_title a {\r\n            color: #fff;\r\n        }\r\n\r\n        .p_price {\r\n            width: 265px;\r\n            height: 80px;\r\n            margin-right: 10px;\r\n            margin-left: 10px;\r\n            background: red;\r\n        }\r\n\r\n        .prod-price {\r\n            position: relative;\r\n            left: -10px;\r\n            color: #990211;\r\n            font-size: 12px;\r\n        }\r\n\r\n            .prod-price img {\r\n                display: inline-block;\r\n                vertical-align: middle;\r\n                margin-right: 4px;\r\n                font-family: arial;\r\n            }\r\n\r\n            .prod-price strong {\r\n                display: inline-block;\r\n                vertical-align: bottom;\r\n                font-size: 22px;\r\n            }\r\n\r\n        .prod-guj {\r\n            padding: 4px 20px 10px;\r\n        }\r\n\r\n            .prod-guj p {\r\n                line-height: 1.8;\r\n                font-size: 13px;\r\n            }\r\n\r\n                .prod-guj p span {\r\n                    padding-left: 30px;\r\n                }\r\n\r\n                .prod-guj p .time-fd {\r\n                    padding-left: 17px;\r\n                }\r\n\r\n                .prod-guj p strong {\r\n                    display: inline-block;\r\n                    padding-left: 30px;\r\n                    vertical-align: bottom;\r\n                    font-size: 22px;\r\n                    color: #990211;\r\n                    line-height: 1.1;\r\n                }\r\n\r\n                .prod-guj p i {\r\n                    display: inline-block;\r\n                    vertical-align: bottom;\r\n                    font-style: normal;\r\n                }\r\n\r\n                .prod-guj p s {\r\n                    position: relative;\r\n                    top: -6px;\r\n                    right: -15px;\r\n                    display: inline-block;\r\n                    vertical-align: bottom;\r\n                    width: 70px;\r\n                    line-height: 22px;\r\n                    text-align: center;\r\n                    background: #FA5C1E;\r\n                    color: #fff;\r\n                    font-size: 12px;\r\n                    text-decoration: none;\r\n                }\r\n\r\n        .prod-alink {\r\n            width: 100%;\r\n            white-space: nowrap;\r\n            font-size: 0;\r\n            text-align: center;\r\n            border-top: solid #A3A3A3 1px;\r\n            overflow: hidden;\r\n        }\r\n\r\n            .prod-alink a {\r\n                display: inline-block;\r\n                width: 50%;\r\n                height: 26px;\r\n                line-height: 26px;\r\n                font-size: 13px;\r\n                border-right: solid #A3A3A3 1px;\r\n            }\r\n\r\n        a {\r\n            color: #535353;\r\n        }\r\n        #Con2,#Con3,Con4{\r\n            float:left;\r\n       }\r\n    </style>\r\n</head>\r\n<body>\r\n    <form id="form1" runat="server">\r\n        <div style="margin: 0px auto;">\r\n            <div id="head">\r\n                <div style="width: 100%; height: 35px;">\r\n                    <div style="width: 1200px; margin: 0px auto; height: 35px;">\r\n                        <iframe src="http://www1.rmfysszc.gov.cn/Login1/" frameborder="0" scrolling="no" hspace="0" vspace="0" width="1200" height="35" align="middle" allowtransparency="true"></iframe>\r\n                    </div>\r\n                </div>\r\n                <div style="width: 100%; height: 100px; background: white; background-position: center center; line-height: 100px; text-align: center;">\r\n                    <img src="/Images1/logo2.png" style="margin-top: 20px; margin-right: 20px;" /><span style="font-size: 36px; font-weight: 800; font-family: \'Microsoft YaHei\'; color: #A40000;">\xe5\xa4\xa9\xe6\xb4\xa5\xe5\xb8\x82\xe9\xab\x98\xe7\xba\xa7\xe4\xba\xba\xe6\xb0\x91\xe6\xb3\x95\xe9\x99\xa2\xe8\xaf\x89\xe8\xae\xbc\xe8\xb5\x84\xe4\xba\xa7\xe7\xbd\x91</span>\r\n                </div>\r\n                <div style="width: 100%; height: 50px; border-bottom: 2px solid #a2000d; background: white;">\r\n                    <div style="width: 1200px; margin: 0px auto; height: 100%;">\r\n                        <a href="http://www.rmfysszc.gov.cn" target="_blank">\r\n                            <img class="nav" style="margin-top: 14px; margin-right: 170px;" src="http://www.rmfysszc.gov.cn/2017version/images/\xe5\xaf\xbc\xe8\x88\xaa\xe6\xa0\x8f/\xe5\xaf\xbc\xe8\x88\xaa\xe6\xa0\x8f-\xe9\xa6\x96\xe9\xa1\xb5\xe5\x9b\xbe\xe6\xa0\x87\xe7\x82\xb9\xe5\x87\xbb.png" />\r\n                        </a>\r\n                        <a href="http://www1.rmfysszc.gov.cn/projects.shtml?dh=3&gpstate=1&wsbm_slt=1" target="_blank">\r\n                            <img class="nav" style="margin-top: 14px; margin-right: 170px;" src="http://www.rmfysszc.gov.cn/2017version/images/\xe5\xaf\xbc\xe8\x88\xaa\xe6\xa0\x8f/\xe5\xaf\xbc\xe8\x88\xaa\xe6\xa0\x8f-\xe6\x8b\x8d\xe5\x8d\x96\xe9\xa1\xb9\xe7\x9b\xae\xe5\x9b\xbe\xe6\xa0\x87.png" />\r\n                        </a>\r\n                        <a href="https://auction.rmfysszc.gov.cn/" target="_blank">\r\n                            <img class="nav" style="margin-top: 14px; margin-right: 170px;" src="http://www.rmfysszc.gov.cn/2017version/images/\xe5\xaf\xbc\xe8\x88\xaa\xe6\xa0\x8f/\xe5\xaf\xbc\xe8\x88\xaa\xe6\xa0\x8f-\xe7\xab\x9e\xe4\xbb\xb7\xe5\xa4\xa7\xe5\x8e\x85\xe5\x9b\xbe\xe6\xa0\x87.png" />\r\n                        </a>\r\n                        <a href="http://www1.rmfysszc.gov.cn/agency/?fid=&dh=8" target="_blank">\r\n                            <img class="nav" style="margin-top: 14px; margin-right: 170px;" src="http://www.rmfysszc.gov.cn/2017version/images/\xe5\xaf\xbc\xe8\x88\xaa\xe6\xa0\x8f/\xe5\xaf\xbc\xe8\x88\xaa\xe6\xa0\x8f-\xe5\x8f\xb8\xe8\xbe\x85\xe5\xb7\xa5\xe4\xbd\x9c\xe5\x9b\xbe\xe6\xa0\x87.png" />\r\n                        </a>\r\n                        <a href="http://www.rmfysszc.gov.cn/helpcenter.html" target="_blank">\r\n                            <img class="nav" style="margin-top: 14px;" src="http://www.rmfysszc.gov.cn/2017version/images/\xe5\xaf\xbc\xe8\x88\xaa\xe6\xa0\x8f/\xe5\xaf\xbc\xe8\x88\xaa\xe6\xa0\x8f-\xe5\xb8\xae\xe5\x8a\xa9\xe4\xb8\xad\xe5\xbf\x83\xe5\x9b\xbe\xe6\xa0\x87.png" />\r\n                        </a>\r\n                    </div>\r\n                </div>\r\n            </div>\r\n            <div style="margin-left: 80px; margin: 0px auto; margin-top: 10px; width: 1200px; height: 25px; background: #A40000; line-height: 25px; text-align: center;"><span style="color: white; font-family: \'Microsoft YaHei\'; font-size: 14px; font-weight: bold;">\xe5\x88\x86\xe9\x99\xa2\xe3\x80\x81\xe4\xb8\xad\xe9\x99\xa2\xe4\xbb\xa5\xe5\x8f\x8a\xe5\x9f\xba\xe5\xb1\x82\xe6\xb3\x95\xe9\x99\xa2</span></div>\r\n            <div style="margin: 0px auto; width: 1200px; height: 1px; background: white;"></div>\r\n            <div>\r\n               <div style="width: 1200px; margin: 0px auto; height: 28px; line-height: 28px; background: #373A41;"><div class="div_link_zy"><a title="\xe5\xa4\xa9\xe6\xb4\xa5\xe5\xb8\x82\xe7\xac\xac\xe4\xb8\x80\xe4\xb8\xad\xe7\xba\xa7\xe4\xba\xba\xe6\xb0\x91\xe6\xb3\x95\xe9\x99\xa2" target="_blank" href="http://www.rmfysszc.gov.cn/statichtml/rm_zindex/461/rm_zindex.shtml" onmouseover="zyover(this);" onmouseout="zyout(this);">\xe5\xa4\xa9\xe6\xb4\xa5\xe5\xb8\x82\xe7\xac\xac\xe4\xb8\x80\xe4\xb8\xad\xe7\xba\xa7\xe4\xba\xba\xe6\xb0\x91\xe6\xb3\x95\xe9\x99\xa2</a><div style="display: none; width:300px;" onmouseover="zyover(this);" onmouseout="zyout(this);"><div align="center" class="triangle_border_up"></div><div align="center" class="div_link_qx"><span title="\xe5\xa4\xa9\xe6\xb4\xa5\xe5\xb8\x82\xe5\x92\x8c\xe5\xb9\xb3\xe5\x8c\xba\xe4\xba\xba\xe6\xb0\x91\xe6\xb3\x95\xe9\x99\xa2"><a target="_blank" href="http://www.rmfysszc.gov.cn/statichtml/rm_qindex/1974/rm_qindex.shtml">\xe5\xa4\xa9\xe6\xb4\xa5\xe5\xb8\x82\xe5\x92\x8c\xe5\xb9\xb3\xe5\x8c\xba\xe4\xba\xba\xe6\xb0\x91\xe6\xb3\x95\xe2\x80\xa6</a></span><span title="\xe5\xa4\xa9\xe6\xb4\xa5\xe5\xb8\x82\xe5\x8d\x97\xe5\xbc\x80\xe5\x8c\xba\xe4\xba\xba\xe6\xb0\x91\xe6\xb3\x95\xe9\x99\xa2"><a target="_blank" href="http://www.rmfysszc.gov.cn/statichtml/rm_qindex/1978/rm_qindex.shtml">\xe5\xa4\xa9\xe6\xb4\xa5\xe5\xb8\x82\xe5\x8d\x97\xe5\xbc\x80\xe5\x8c\xba\xe4\xba\xba\xe6\xb0\x91\xe6\xb3\x95\xe2\x80\xa6</a></span><span title="\xe5\xa4\xa9\xe6\xb4\xa5\xe5\xb8\x82\xe6\xb2\xb3\xe5\x8c\x97\xe5\x8c\xba\xe4\xba\xba\xe6\xb0\x91\xe6\xb3\x95\xe9\x99\xa2"><a target="_blank" href="http://www.rmfysszc.gov.cn/statichtml/rm_qindex/1982/rm_qindex.shtml">\xe5\xa4\xa9\xe6\xb4\xa5\xe5\xb8\x82\xe6\xb2\xb3\xe5\x8c\x97\xe5\x8c\xba\xe4\xba\xba\xe6\xb0\x91\xe6\xb3\x95\xe2\x80\xa6</a></span><span title="\xe5\xa4\xa9\xe6\xb4\xa5\xe5\xb8\x82\xe7\xba\xa2\xe6\xa1\xa5\xe5\x8c\xba\xe4\xba\xba\xe6\xb0\x91\xe6\xb3\x95\xe9\x99\xa2"><a target="_blank" href="http://www.rmfysszc.gov.cn/statichtml/rm_qindex/1986/rm_qindex.shtml">\xe5\xa4\xa9\xe6\xb4\xa5\xe5\xb8\x82\xe7\xba\xa2\xe6\xa1\xa5\xe5\x8c\xba\xe4\xba\xba\xe6\xb0\x91\xe6\xb3\x95\xe2\x80\xa6</a></span><span title="\xe5\xa4\xa9\xe6\xb4\xa5\xe5\xb8\x82\xe8\xa5\xbf\xe9\x9d\x92\xe5\x8c\xba\xe4\xba\xba\xe6\xb0\x91\xe6\xb3\x95\xe9\x99\xa2"><a target="_blank" href="http://www.rmfysszc.gov.cn/statichtml/rm_qindex/1990/rm_qindex.shtml">\xe5\xa4\xa9\xe6\xb4\xa5\xe5\xb8\x82\xe8\xa5\xbf\xe9\x9d\x92\xe5\x8c\xba\xe4\xba\xba\xe6\xb0\x91\xe6\xb3\x95\xe2\x80\xa6</a></span><span title="\xe5\xa4\xa9\xe6\xb4\xa5\xe5\xb8\x82\xe5\x8c\x97\xe8\xbe\xb0\xe5\x8c\xba\xe4\xba\xba\xe6\xb0\x91\xe6\xb3\x95\xe9\x99\xa2"><a target="_blank" href="http://www.rmfysszc.gov.cn/statichtml/rm_qindex/1994/rm_qindex.shtml">\xe5\xa4\xa9\xe6\xb4\xa5\xe5\xb8\x82\xe5\x8c\x97\xe8\xbe\xb0\xe5\x8c\xba\xe4\xba\xba\xe6\xb0\x91\xe6\xb3\x95\xe2\x80\xa6</a></span><span title="\xe5\xa4\xa9\xe6\xb4\xa5\xe5\xb8\x82\xe6\xad\xa6\xe6\xb8\x85\xe5\x8c\xba\xe4\xba\xba\xe6\xb0\x91\xe6\xb3\x95\xe9\x99\xa2"><a target="_blank" href="http://www.rmfysszc.gov.cn/statichtml/rm_qindex/1998/rm_qindex.shtml">\xe5\xa4\xa9\xe6\xb4\xa5\xe5\xb8\x82\xe6\xad\xa6\xe6\xb8\x85\xe5\x8c\xba\xe4\xba\xba\xe6\xb0\x91\xe6\xb3\x95\xe2\x80\xa6</a></span><span title="\xe5\xa4\xa9\xe6\xb4\xa5\xe5\xb8\x82\xe5\xae\x9d\xe5\x9d\xbb\xe5\x8c\xba\xe4\xba\xba\xe6\xb0\x91\xe6\xb3\x95\xe9\x99\xa2"><a target="_blank" href="http://www.rmfysszc.gov.cn/statichtml/rm_qindex/2002/rm_qindex.shtml">\xe5\xa4\xa9\xe6\xb4\xa5\xe5\xb8\x82\xe5\xae\x9d\xe5\x9d\xbb\xe5\x8c\xba\xe4\xba\xba\xe6\xb0\x91\xe6\xb3\x95\xe2\x80\xa6</a></span><span title="\xe8\x93\x9f\xe5\x8e\xbf\xe4\xba\xba\xe6\xb0\x91\xe6\xb3\x95\xe9\x99\xa2"><a target="_blank" href="http://www.rmfysszc.gov.cn/statichtml/rm_qindex/2006/rm_qindex.shtml">\xe8\x93\x9f\xe5\x8e\xbf\xe4\xba\xba\xe6\xb0\x91\xe6\xb3\x95\xe9\x99\xa2</a></span><span title="\xe5\xa4\xa9\xe6\xb4\xa5\xe5\xb8\x82\xe9\x9d\x99\xe6\xb5\xb7\xe5\x8c\xba\xe4\xba\xba\xe6\xb0\x91\xe6\xb3\x95\xe9\x99\xa2"><a target="_blank" href="http://www.rmfysszc.gov.cn/statichtml/rm_qindex/2010/rm_qindex.shtml">\xe5\xa4\xa9\xe6\xb4\xa5\xe5\xb8\x82\xe9\x9d\x99\xe6\xb5\xb7\xe5\x8c\xba\xe4\xba\xba\xe6\xb0\x91\xe6\xb3\x95\xe2\x80\xa6</a></span></div></div></div><div class="div_link_zy"><a title="\xe5\xa4\xa9\xe6\xb4\xa5\xe5\xb8\x82\xe7\xac\xac\xe4\xba\x8c\xe4\xb8\xad\xe7\xba\xa7\xe4\xba\xba\xe6\xb0\x91\xe6\xb3\x95\xe9\x99\xa2" target="_blank" href="http://www.rmfysszc.gov.cn/statichtml/rm_zindex/462/rm_zindex.shtml" onmouseover="zyover(this);" onmouseout="zyout(this);">\xe5\xa4\xa9\xe6\xb4\xa5\xe5\xb8\x82\xe7\xac\xac\xe4\xba\x8c\xe4\xb8\xad\xe7\xba\xa7\xe4\xba\xba\xe6\xb0\x91\xe6\xb3\x95\xe9\x99\xa2</a><div style="display: none; width:300px;" onmouseover="zyover(this);" onmouseout="zyout(this);"><div align="center" class="triangle_border_up"></div><div align="center" class="div_link_qx"><span title="\xe5\xa4\xa9\xe6\xb4\xa5\xe5\xb8\x82\xe6\xb2\xb3\xe4\xb8\x9c\xe5\x8c\xba\xe4\xba\xba\xe6\xb0\x91\xe6\xb3\x95\xe9\x99\xa2"><a target="_blank" href="http://www.rmfysszc.gov.cn/statichtml/rm_qindex/2017/rm_qindex.shtml">\xe5\xa4\xa9\xe6\xb4\xa5\xe5\xb8\x82\xe6\xb2\xb3\xe4\xb8\x9c\xe5\x8c\xba\xe4\xba\xba\xe6\xb0\x91\xe6\xb3\x95\xe2\x80\xa6</a></span><span title="\xe5\xa4\xa9\xe6\xb4\xa5\xe5\xb8\x82\xe6\xb2\xb3\xe8\xa5\xbf\xe5\x8c\xba\xe4\xba\xba\xe6\xb0\x91\xe6\xb3\x95\xe9\x99\xa2"><a target="_blank" href="http://www.rmfysszc.gov.cn/statichtml/rm_qindex/2021/rm_qindex.shtml">\xe5\xa4\xa9\xe6\xb4\xa5\xe5\xb8\x82\xe6\xb2\xb3\xe8\xa5\xbf\xe5\x8c\xba\xe4\xba\xba\xe6\xb0\x91\xe6\xb3\x95\xe2\x80\xa6</a></span><span title="\xe5\xa4\xa9\xe6\xb4\xa5\xe5\xb8\x82\xe5\xa1\x98\xe6\xb2\xbd\xe5\x8c\xba\xe4\xba\xba\xe6\xb0\x91\xe6\xb3\x95\xe9\x99\xa2"><a target="_blank" href="http://www.rmfysszc.gov.cn/statichtml/rm_qindex/2025/rm_qindex.shtml">\xe5\xa4\xa9\xe6\xb4\xa5\xe5\xb8\x82\xe5\xa1\x98\xe6\xb2\xbd\xe5\x8c\xba\xe4\xba\xba\xe6\xb0\x91\xe6\xb3\x95\xe2\x80\xa6</a></span><span title="\xe5\xa4\xa9\xe6\xb4\xa5\xe5\xb8\x82\xe6\xb1\x89\xe6\xb2\xbd\xe5\x8c\xba\xe4\xba\xba\xe6\xb0\x91\xe6\xb3\x95\xe9\x99\xa2"><a target="_blank" href="http://www.rmfysszc.gov.cn/statichtml/rm_qindex/2029/rm_qindex.shtml">\xe5\xa4\xa9\xe6\xb4\xa5\xe5\xb8\x82\xe6\xb1\x89\xe6\xb2\xbd\xe5\x8c\xba\xe4\xba\xba\xe6\xb0\x91\xe6\xb3\x95\xe2\x80\xa6</a></span><span title="\xe5\xa4\xa9\xe6\xb4\xa5\xe5\xb8\x82\xe5\xa4\xa7\xe6\xb8\xaf\xe5\x8c\xba\xe4\xba\xba\xe6\xb0\x91\xe6\xb3\x95\xe9\x99\xa2"><a target="_blank" href="http://www.rmfysszc.gov.cn/statichtml/rm_qindex/2033/rm_qindex.shtml">\xe5\xa4\xa9\xe6\xb4\xa5\xe5\xb8\x82\xe5\xa4\xa7\xe6\xb8\xaf\xe5\x8c\xba\xe4\xba\xba\xe6\xb0\x91\xe6\xb3\x95\xe2\x80\xa6</a></span><span title="\xe5\xa4\xa9\xe6\xb4\xa5\xe5\xb8\x82\xe4\xb8\x9c\xe4\xb8\xbd\xe5\x8c\xba\xe4\xba\xba\xe6\xb0\x91\xe6\xb3\x95\xe9\x99\xa2"><a target="_blank" href="http://www.rmfysszc.gov.cn/statichtml/rm_qindex/2037/rm_qindex.shtml">\xe5\xa4\xa9\xe6\xb4\xa5\xe5\xb8\x82\xe4\xb8\x9c\xe4\xb8\xbd\xe5\x8c\xba\xe4\xba\xba\xe6\xb0\x91\xe6\xb3\x95\xe2\x80\xa6</a></span><span title="\xe5\xa4\xa9\xe6\xb4\xa5\xe5\xb8\x82\xe6\xb4\xa5\xe5\x8d\x97\xe5\x8c\xba\xe4\xba\xba\xe6\xb0\x91\xe6\xb3\x95\xe9\x99\xa2"><a target="_blank" href="http://www.rmfysszc.gov.cn/statichtml/rm_qindex/2041/rm_qindex.shtml">\xe5\xa4\xa9\xe6\xb4\xa5\xe5\xb8\x82\xe6\xb4\xa5\xe5\x8d\x97\xe5\x8c\xba\xe4\xba\xba\xe6\xb0\x91\xe6\xb3\x95\xe2\x80\xa6</a></span><span title="\xe5\xae\x81\xe6\xb2\xb3\xe5\x8e\xbf\xe4\xba\xba\xe6\xb0\x91\xe6\xb3\x95\xe9\x99\xa2"><a target="_blank" href="http://www.rmfysszc.gov.cn/statichtml/rm_qindex/2045/rm_qindex.shtml">\xe5\xae\x81\xe6\xb2\xb3\xe5\x8e\xbf\xe4\xba\xba\xe6\xb0\x91\xe6\xb3\x95\xe9\x99\xa2</a></span><span title="\xe5\xa4\xa9\xe6\xb4\xa5\xe7\xbb\x8f\xe6\xb5\x8e\xe6\x8a\x80\xe6\x9c\xaf\xe5\xbc\x80\xe5\x8f\x91\xe5\x8c\xba\xe4\xba\xba\xe6\xb0\x91\xe6\xb3\x95\xe9\x99\xa2"><a target="_blank" href="http://www.rmfysszc.gov.cn/statichtml/rm_qindex/2049/rm_qindex.shtml">\xe5\xa4\xa9\xe6\xb4\xa5\xe7\xbb\x8f\xe6\xb5\x8e\xe6\x8a\x80\xe6\x9c\xaf\xe5\xbc\x80\xe5\x8f\x91\xe5\x8c\xba\xe2\x80\xa6</a></span><span title="\xe5\xa4\xa9\xe6\xb4\xa5\xe5\xb8\x82\xe5\xae\x81\xe6\xb2\xb3\xe5\x8c\xba\xe4\xba\xba\xe6\xb0\x91\xe6\xb3\x95\xe9\x99\xa2"><a target="_blank" href="http://www.rmfysszc.gov.cn/statichtml/rm_qindex/14969/rm_qindex.shtml">\xe5\xa4\xa9\xe6\xb4\xa5\xe5\xb8\x82\xe5\xae\x81\xe6\xb2\xb3\xe5\x8c\xba\xe4\xba\xba\xe6\xb0\x91\xe6\xb3\x95\xe2\x80\xa6</a></span><span title="\xe5\xa4\xa9\xe6\xb4\xa5\xe5\xb8\x82\xe6\xbb\xa8\xe6\xb5\xb7\xe6\x96\xb0\xe5\x8c\xba\xe4\xba\xba\xe6\xb0\x91\xe6\xb3\x95\xe9\x99\xa2"><a target="_blank" href="http://www.rmfysszc.gov.cn/statichtml/rm_qindex/14970/rm_qindex.shtml">\xe5\xa4\xa9\xe6\xb4\xa5\xe5\xb8\x82\xe6\xbb\xa8\xe6\xb5\xb7\xe6\x96\xb0\xe5\x8c\xba\xe4\xba\xba\xe6\xb0\x91\xe2\x80\xa6</a></span></div></div></div><div class="div_link_zy"><a title="\xe5\xa4\xa9\xe6\xb4\xa5\xe6\xb5\xb7\xe4\xba\x8b\xe6\xb3\x95\xe9\x99\xa2" target="_blank" href="http://www.rmfysszc.gov.cn/statichtml/rm_zindex/463/rm_zindex.shtml" onmouseover="zyover(this);" onmouseout="zyout(this);">\xe5\xa4\xa9\xe6\xb4\xa5\xe6\xb5\xb7\xe4\xba\x8b\xe6\xb3\x95\xe9\x99\xa2</a><span class="clear" style="display:block;"></span></div></div>\r\n            </div>\r\n            <div style="width: 1200px; margin: 0px auto; margin-top: 10px; z-index: -1;">\r\n                <div>\r\n                    <div style="width: 1200px; text-align: left; z-index: -1;">\r\n                        <img src="/Images1/\xe6\x8b\x8d\xe5\x8d\x96\xe5\x85\xac\xe5\x91\x8a.png" usemap="#pmgg" id="pmgg1" />\r\n                        <map id="pmgg" name="pmgg">\r\n                            <area shape="rect" coords="184,5,311,29" href="http://www1.rmfysszc.gov.cn/News/Pmgg.shtml?fid=91&dh=3&st=0" target="_blank" alt="" onfocus="blur(this);" />\r\n                        </map>\r\n                    </div>\r\n                       <iframe src="http://www1.rmfysszc.gov.cn/Agency/pmgg.aspx?fid=91" marginheight="0" marginwidth="0" frameborder="0" scrolling="no" hspace="0" vspace="0" width="1200px" align="middle" id="iframepage" name="iframepage" onload="iframeResize(this)" allowtransparency="true" height="230" style="margin: 0px; padding: 0px;"></iframe>\r\n                </div>\r\n                <div id="Con2">\r\n                    <div style="width: 1200px; text-align: left; margin-top: 0px;">\r\n                        <img src="/Images1/\xe6\xad\xa3\xe5\x9c\xa8\xe6\x8b\x8d\xe5\x8d\x96.png" usemap="#zzpm" id="zzpm1" />\r\n                        <map id="zzpm" name="zzpm">\r\n                            <area shape="rect" coords="184,5,311,29" href="http://www1.rmfysszc.gov.cn/projects.shtml?fid=91&s=1"  alt="" target="_blank" onfocus="blur(this);" />\r\n                        </map>\r\n                    </div>\r\n\r\n                    <div id="begin1" style="width: 100%; margin-top: 10px;">\r\n                        <center><img style="display:block;margin-top:250px;" src="/Images/squares.gif" /></center>\r\n                    </div>\r\n</div>\r\n                    <div id="Con3">\r\n                    <div style="width: 1200px; text-align: left; margin-top: 20px;">\r\n                        <img src="/Images1/\xe6\x8b\x8d\xe5\x8d\x96\xe9\xa2\x84\xe5\x91\x8a.png" usemap="#pmyg" id="pmyg1" />\r\n                        <map id="pmyg" name="pmyg">\r\n                            <area shape="rect" coords="184,5,311,29" href="http://www1.rmfysszc.gov.cn/projects.shtml?fid=91&s=2" alt="" target="_blank" onfocus="blur(this);" />\r\n                        </map>\r\n                    </div>\r\n                    <div id="begin" style="margin: 0px auto; width: 1200px; margin-top: 10px;">\r\n                        <center><img style="display:block;margin-top:250px;" src="/Images/squares.gif" /></center>\r\n\r\n                    </div>\r\n                </div>\r\n\r\n                <div id="Con4">\r\n                    <div style="width: 1200px; text-align: left; margin-top: 20px;">\r\n                        <img src="/Images1/\xe5\xb7\xa5\xe4\xbd\x9c\xe5\x85\xac\xe7\xa4\xba.png" usemap="#gzgs" id="gzgs1" />\r\n                        <map id="gzgs" name="gzgs">\r\n                            <area shape="rect" coords="184,5,311,29" href="http://www1.rmfysszc.gov.cn/agency/Agency.shtml?fid=91" alt="" target="_blank" onfocus="blur(this);" />\r\n                        </map>\r\n                    </div>\r\n                    <div style="margin: 0px auto; text-align: center; width: 1200px;">\r\n                        <table cellpadding="0" cellspacing="0" border="0" width="100%" style="background: white;"><thead><tr style="height: 40px; vertical-align: middle; line-height: 40px; background: white;"><th>\xe5\x85\xac\xe7\xa4\xba\xe5\x90\x8d\xe7\xa7\xb0</th><th style="text-align:left"><span style="margin-left:150px;">\xe6\xb3\x95\xe9\x99\xa2</span></th><th>\xe7\xb1\xbb\xe5\x9e\x8b</th><th>\xe5\x8f\x91\xe5\xb8\x83\xe6\x97\xa5\xe6\x9c\x9f</th><th>\xe7\x8a\xb6\xe6\x80\x81</th></tr></thead><tbody><tr style="height: 0px;" class="listtr"><td></td><td></td><td></td><td></td><td></td></tr><tr style="height: 30px; text-align:left; vertical-align: middle; line-height: 30px;" class="listtr"><td style="width:460px;"><span style="font-family: SimSun; font-size: 12px; margin-left: 50px; color: #313131;"><a href="javascript:void(0);" onclick="rm_gzgsdetails(\'152416\')" class="trlist" title="\xe5\x85\xac\xe5\x91\x8a" target="_blank">\xe5\x85\xac\xe5\x91\x8a</a></span></td><td style="width:380px;"><span style="font-family: SimSun; font-size: 12px; margin-left: 100px; color: #313131;" title="\xe5\xa4\xa9\xe6\xb4\xa5\xe5\xb8\x82\xe9\xab\x98\xe7\xba\xa7\xe4\xba\xba\xe6\xb0\x91\xe6\xb3\x95\xe9\x99\xa2";>\xe5\xa4\xa9\xe6\xb4\xa5\xe5\xb8\x82\xe9\xab\x98\xe7\xba\xa7\xe4\xba\xba\xe6\xb0\x91\xe6\xb3\x95\xe9\x99\xa2</span></td><td style="text-align:center;width:80px;"><span style="font-family: SimSun; font-size: 12px; text-align:center; color: #313131;">\xe6\x8b\x8d\xe5\x8d\x96</span></td><td style="width:170px;text-align:center;"><span style="font-family: SimSun; font-size: 12px; color: #313131;">2016.12.27</span></td><td style="width:100px;text-align:center;"><span style="font-family: SimSun; font-size: 12px; color: #313131;"></span></td></tr><tr style="height: 30px; text-align:left; vertical-align: middle; line-height: 30px;" class="listtr"><td style="width:460px;"><span style="font-family: SimSun; font-size: 12px; margin-left: 50px; color: #313131;"><a href="javascript:void(0);" onclick="rm_gzgsdetails(\'152413\')" class="trlist" title="\xe5\x85\xac\xe5\x91\x8a" target="_blank">\xe5\x85\xac\xe5\x91\x8a</a></span></td><td style="width:380px;"><span style="font-family: SimSun; font-size: 12px; margin-left: 100px; color: #313131;" title="\xe5\xa4\xa9\xe6\xb4\xa5\xe5\xb8\x82\xe9\xab\x98\xe7\xba\xa7\xe4\xba\xba\xe6\xb0\x91\xe6\xb3\x95\xe9\x99\xa2";>\xe5\xa4\xa9\xe6\xb4\xa5\xe5\xb8\x82\xe9\xab\x98\xe7\xba\xa7\xe4\xba\xba\xe6\xb0\x91\xe6\xb3\x95\xe9\x99\xa2</span></td><td style="text-align:center;width:80px;"><span style="font-family: SimSun; font-size: 12px; text-align:center; color: #313131;">\xe6\x8b\x8d\xe5\x8d\x96</span></td><td style="width:170px;text-align:center;"><span style="font-family: SimSun; font-size: 12px; color: #313131;">2016.12.27</span></td><td style="width:100px;text-align:center;"><span style="font-family: SimSun; font-size: 12px; color: #313131;"></span></td></tr><tr style="height: 30px; text-align:left; vertical-align: middle; line-height: 30px;" class="listtr"><td style="width:460px;"><span style="font-family: SimSun; font-size: 12px; margin-left: 50px; color: #313131;"><a href="javascript:void(0);" onclick="rm_gzgsdetails(\'32166\')" class="trlist" title="\xe5\xa4\xa9\xe6\xb4\xa5\xe9\x87\x91\xe8\x9e\x8d\xe8\xb5\x84\xe4\xba\xa7\xe4\xba\xa4\xe6\x98\x93\xe6\x89\x80\xe8\xbd\xac\xe8\xae\xa9\xe4\xbf\xa1\xe6\x81\xaf\xe5\x85\xac\xe5\x91\x8a" target="_blank">\xe5\xa4\xa9\xe6\xb4\xa5\xe9\x87\x91\xe8\x9e\x8d\xe8\xb5\x84\xe4\xba\xa7\xe4\xba\xa4\xe6\x98\x93\xe6\x89\x80\xe8\xbd\xac\xe8\xae\xa9\xe4\xbf\xa1\xe6\x81\xaf\xe5\x85\xac\xe5\x91\x8a</a></span></td><td style="width:380px;"><span style="font-family: SimSun; font-size: 12px; margin-left: 100px; color: #313131;" title="\xe5\xa4\xa9\xe6\xb4\xa5\xe5\xb8\x82\xe9\xab\x98\xe7\xba\xa7\xe4\xba\xba\xe6\xb0\x91\xe6\xb3\x95\xe9\x99\xa2";>\xe5\xa4\xa9\xe6\xb4\xa5\xe5\xb8\x82\xe9\xab\x98\xe7\xba\xa7\xe4\xba\xba\xe6\xb0\x91\xe6\xb3\x95\xe9\x99\xa2</span></td><td style="text-align:center;width:80px;"><span style="font-family: SimSun; font-size: 12px; text-align:center; color: #313131;">\xe6\x8b\x8d\xe5\x8d\x96</span></td><td style="width:170px;text-align:center;"><span style="font-family: SimSun; font-size: 12px; color: #313131;">2013.11.29</span></td><td style="width:100px;text-align:center;"><span style="font-family: SimSun; font-size: 12px; color: #313131;"></span></td></tr><tr style="height: 30px; text-align:left; vertical-align: middle; line-height: 30px;" class="listtr"><td style="width:460px;"><span style="font-family: SimSun; font-size: 12px; margin-left: 50px; color: #313131;"><a href="javascript:void(0);" onclick="rm_gzgsdetails(\'32165\')" class="trlist" title="\xe5\xa4\xa9\xe6\xb4\xa5\xe9\x87\x91\xe8\x9e\x8d\xe8\xb5\x84\xe4\xba\xa7\xe4\xba\xa4\xe6\x98\x93\xe6\x89\x80\xe8\xbd\xac\xe8\xae\xa9\xe4\xbf\xa1\xe6\x81\xaf\xe5\x85\xac\xe5\x91\x8a" target="_blank">\xe5\xa4\xa9\xe6\xb4\xa5\xe9\x87\x91\xe8\x9e\x8d\xe8\xb5\x84\xe4\xba\xa7\xe4\xba\xa4\xe6\x98\x93\xe6\x89\x80\xe8\xbd\xac\xe8\xae\xa9\xe4\xbf\xa1\xe6\x81\xaf\xe5\x85\xac\xe5\x91\x8a</a></span></td><td style="width:380px;"><span style="font-family: SimSun; font-size: 12px; margin-left: 100px; color: #313131;" title="\xe5\xa4\xa9\xe6\xb4\xa5\xe5\xb8\x82\xe9\xab\x98\xe7\xba\xa7\xe4\xba\xba\xe6\xb0\x91\xe6\xb3\x95\xe9\x99\xa2";>\xe5\xa4\xa9\xe6\xb4\xa5\xe5\xb8\x82\xe9\xab\x98\xe7\xba\xa7\xe4\xba\xba\xe6\xb0\x91\xe6\xb3\x95\xe9\x99\xa2</span></td><td style="text-align:center;width:80px;"><span style="font-family: SimSun; font-size: 12px; text-align:center; color: #313131;">\xe6\x8b\x8d\xe5\x8d\x96</span></td><td style="width:170px;text-align:center;"><span style="font-family: SimSun; font-size: 12px; color: #313131;">2013.11.29</span></td><td style="width:100px;text-align:center;"><span style="font-family: SimSun; font-size: 12px; color: #313131;"></span></td></tr><tr style="height: 30px; text-align:left; vertical-align: middle; line-height: 30px;" class="listtr"><td style="width:460px;"><span style="font-family: SimSun; font-size: 12px; margin-left: 50px; color: #313131;"><a href="javascript:void(0);" onclick="rm_gzgsdetails(\'17572\')" class="trlist" title="\xe5\xbb\xb6\xe6\x9c\x9f\xe6\x8b\x8d\xe5\x8d\x96\xe5\x85\xac\xe5\x91\x8a" target="_blank">\xe5\xbb\xb6\xe6\x9c\x9f\xe6\x8b\x8d\xe5\x8d\x96\xe5\x85\xac\xe5\x91\x8a</a></span></td><td style="width:380px;"><span style="font-family: SimSun; font-size: 12px; margin-left: 100px; color: #313131;" title="\xe5\xa4\xa9\xe6\xb4\xa5\xe5\xb8\x82\xe9\xab\x98\xe7\xba\xa7\xe4\xba\xba\xe6\xb0\x91\xe6\xb3\x95\xe9\x99\xa2";>\xe5\xa4\xa9\xe6\xb4\xa5\xe5\xb8\x82\xe9\xab\x98\xe7\xba\xa7\xe4\xba\xba\xe6\xb0\x91\xe6\xb3\x95\xe9\x99\xa2</span></td><td style="text-align:center;width:80px;"><span style="font-family: SimSun; font-size: 12px; text-align:center; color: #313131;">\xe6\x8b\x8d\xe5\x8d\x96</span></td><td style="width:170px;text-align:center;"><span style="font-family: SimSun; font-size: 12px; color: #313131;">2013.03.27</span></td><td style="width:100px;text-align:center;"><span style="font-family: SimSun; font-size: 12px; color: #313131;"></span></td></tr><tr style="height: 30px; text-align:left; vertical-align: middle; line-height: 30px;" class="listtr"><td style="width:460px;"><span style="font-family: SimSun; font-size: 12px; margin-left: 50px; color: #313131;"><a href="javascript:void(0);" onclick="rm_gzgsdetails(\'2439\')" class="trlist" title="\xe4\xb8\xad\xe6\xad\xa2\xe6\x8b\x8d\xe5\x8d\x96\xe7\x9a\x84\xe9\x80\x9a\xe7\x9f\xa5" target="_blank">\xe4\xb8\xad\xe6\xad\xa2\xe6\x8b\x8d\xe5\x8d\x96\xe7\x9a\x84\xe9\x80\x9a\xe7\x9f\xa5</a></span></td><td style="width:380px;"><span style="font-family: SimSun; font-size: 12px; margin-left: 100px; color: #313131;" title="\xe5\xa4\xa9\xe6\xb4\xa5\xe5\xb8\x82\xe9\xab\x98\xe7\xba\xa7\xe4\xba\xba\xe6\xb0\x91\xe6\xb3\x95\xe9\x99\xa2";>\xe5\xa4\xa9\xe6\xb4\xa5\xe5\xb8\x82\xe9\xab\x98\xe7\xba\xa7\xe4\xba\xba\xe6\xb0\x91\xe6\xb3\x95\xe9\x99\xa2</span></td><td style="text-align:center;width:80px;"><span style="font-family: SimSun; font-size: 12px; text-align:center; color: #313131;">\xe6\x8b\x8d\xe5\x8d\x96</span></td><td style="width:170px;text-align:center;"><span style="font-family: SimSun; font-size: 12px; color: #313131;">2012.03.29</span></td><td style="width:100px;text-align:center;"><span style="font-family: SimSun; font-size: 12px; color: #313131;"></span></td></tr><tr style="height: 30px; text-align:left; vertical-align: middle; line-height: 30px;" class="listtr"><td style="width:460px;"><span style="font-family: SimSun; font-size: 12px; margin-left: 50px; color: #313131;"><a href="javascript:void(0);" onclick="rm_gzgsdetails(\'1759\')" class="trlist" title="\xe6\x8b\x8d\xe5\x8d\x96\xe4\xbf\xa1\xe6\x81\xaf" target="_blank">\xe6\x8b\x8d\xe5\x8d\x96\xe4\xbf\xa1\xe6\x81\xaf</a></span></td><td style="width:380px;"><span style="font-family: SimSun; font-size: 12px; margin-left: 100px; color: #313131;" title="\xe5\xa4\xa9\xe6\xb4\xa5\xe5\xb8\x82\xe9\xab\x98\xe7\xba\xa7\xe4\xba\xba\xe6\xb0\x91\xe6\xb3\x95\xe9\x99\xa2";>\xe5\xa4\xa9\xe6\xb4\xa5\xe5\xb8\x82\xe9\xab\x98\xe7\xba\xa7\xe4\xba\xba\xe6\xb0\x91\xe6\xb3\x95\xe9\x99\xa2</span></td><td style="text-align:center;width:80px;"><span style="font-family: SimSun; font-size: 12px; text-align:center; color: #313131;">\xe6\x8b\x8d\xe5\x8d\x96</span></td><td style="width:170px;text-align:center;"><span style="font-family: SimSun; font-size: 12px; color: #313131;">2012.03.09</span></td><td style="width:100px;text-align:center;"><span style="font-family: SimSun; font-size: 12px; color: #313131;"></span></td></tr><tr style="height: 30px; text-align:left; vertical-align: middle; line-height: 30px;" class="listtr"><td style="width:460px;"><span style="font-family: SimSun; font-size: 12px; margin-left: 50px; color: #313131;"><a href="javascript:void(0);" onclick="rm_gzgsdetails(\'1758\')" class="trlist" title="\xe6\x8b\x8d\xe5\x8d\x96\xe4\xbf\xa1\xe6\x81\xaf" target="_blank">\xe6\x8b\x8d\xe5\x8d\x96\xe4\xbf\xa1\xe6\x81\xaf</a></span></td><td style="width:380px;"><span style="font-family: SimSun; font-size: 12px; margin-left: 100px; color: #313131;" title="\xe5\xa4\xa9\xe6\xb4\xa5\xe5\xb8\x82\xe9\xab\x98\xe7\xba\xa7\xe4\xba\xba\xe6\xb0\x91\xe6\xb3\x95\xe9\x99\xa2";>\xe5\xa4\xa9\xe6\xb4\xa5\xe5\xb8\x82\xe9\xab\x98\xe7\xba\xa7\xe4\xba\xba\xe6\xb0\x91\xe6\xb3\x95\xe9\x99\xa2</span></td><td style="text-align:center;width:80px;"><span style="font-family: SimSun; font-size: 12px; text-align:center; color: #313131;">\xe6\x8b\x8d\xe5\x8d\x96</span></td><td style="width:170px;text-align:center;"><span style="font-family: SimSun; font-size: 12px; color: #313131;">2012.03.09</span></td><td style="width:100px;text-align:center;"><span style="font-family: SimSun; font-size: 12px; color: #313131;"></span></td></tr><tr style="height: 30px; text-align:left; vertical-align: middle; line-height: 30px;" class="listtr"><td style="width:460px;"><span style="font-family: SimSun; font-size: 12px; margin-left: 50px; color: #313131;"><a href="javascript:void(0);" onclick="rm_gzgsdetails(\'1757\')" class="trlist" title="\xe6\x8b\x8d\xe5\x8d\x96\xe4\xbf\xa1\xe6\x81\xaf" target="_blank">\xe6\x8b\x8d\xe5\x8d\x96\xe4\xbf\xa1\xe6\x81\xaf</a></span></td><td style="width:380px;"><span style="font-family: SimSun; font-size: 12px; margin-left: 100px; color: #313131;" title="\xe5\xa4\xa9\xe6\xb4\xa5\xe5\xb8\x82\xe9\xab\x98\xe7\xba\xa7\xe4\xba\xba\xe6\xb0\x91\xe6\xb3\x95\xe9\x99\xa2";>\xe5\xa4\xa9\xe6\xb4\xa5\xe5\xb8\x82\xe9\xab\x98\xe7\xba\xa7\xe4\xba\xba\xe6\xb0\x91\xe6\xb3\x95\xe9\x99\xa2</span></td><td style="text-align:center;width:80px;"><span style="font-family: SimSun; font-size: 12px; text-align:center; color: #313131;">\xe6\x8b\x8d\xe5\x8d\x96</span></td><td style="width:170px;text-align:center;"><span style="font-family: SimSun; font-size: 12px; color: #313131;">2012.03.09</span></td><td style="width:100px;text-align:center;"><span style="font-family: SimSun; font-size: 12px; color: #313131;"></span></td></tr></tbody></table>\r\n                    </div>\r\n                    <div style="margin-bottom: 20px;">\r\n                        <div style="width: 1200px; text-align: left; z-index: -1; margin-top: 20px;">\r\n                            <img src="/Images1/\xe5\x9c\xb0\xe6\x96\xb9\xe6\xb3\x95\xe8\xa7\x84.png" usemap="#dffg" id="dffg1" />\r\n                            <map id="dffg" name="dffg">\r\n                                <area shape="rect" coords="184,5,311,29" href="http://www1.rmfysszc.gov.cn/dffg.shtml?fid=91" target="_blank" alt="" onfocus="blur(this);" />\r\n                            </map>\r\n                        </div>\r\n                        <div style="margin: 0px auto; text-align: center; width: 1200px;">\r\n                            <table cellpadding="0" cellspacing="0" border="0" width="100%" style="background: white;"><thead><tr style="height: 40px; vertical-align: middle; line-height: 40px; background: white;"><th style="width: 48%">\xe6\xa0\x87\xe9\xa2\x98</th><th style="width: 35%;text-align: left;"><span style="margin-left:110px;">\xe6\xb3\x95\xe9\x99\xa2</span></th><th>\xe6\x97\xb6\xe9\x97\xb4</th></tr></thead><tbody><tr style="height: 0px;" class="listtr"><td></td><td></td></tr><tr style="height: 30px; text-align:center; vertical-align: middle; line-height: 30px;" class="listtr"><td colspan="3"><span style="font-size:12px; font-family:\'SimSun\';color:#373A41;">\xe6\x9a\x82\xe6\x97\xa0\xe6\x95\xb0\xe6\x8d\xae</span></td></tr></tbody></table>\r\n                        </div>\r\n                    </div>\r\n                </div>\r\n            </div>\r\n        </div>\r\n            <div style="width: 100%; height: 10px; background: #a40000; float: left; margin: 0px;"></div>\r\n            <div style="text-align: center; width: 100%; padding-top: 10px; float: left; background: white;">\r\n                <div style="width: 100%; height: 100px; float: left; background: white;">\r\n                    <div style="width: 1200px; margin: 0px auto; text-align: center; font-size: 14px; color: #535353; line-height: 25px; margin-top: 30px;">\r\n                        <div class="divfoot_r2_c1">\r\n                            <div style="font-family: \'Microsoft YaHei\'; color: #535353; font-size: 14px;">\xe4\xb8\xad\xe5\x8d\x8e\xe4\xba\xba\xe6\xb0\x91\xe5\x85\xb1\xe5\x92\x8c\xe5\x9b\xbd\xe6\x9c\x80\xe9\xab\x98\xe4\xba\xba\xe6\xb0\x91\xe6\xb3\x95\xe9\x99\xa2\xe5\x8f\xb8\xe6\xb3\x95\xe8\xa1\x8c\xe6\x94\xbf\xe8\xa3\x85\xe5\xa4\x87\xe7\xae\xa1\xe7\x90\x86\xe5\xb1\x80\xe4\xb8\xbb\xe7\xae\xa1</div>\r\n                            <div style="display: none">\r\n                            <script src="http://s96.cnzz.com/stat.php?id=3765988&web_id=3765988" language="JavaScript"></script>\r\n                        </div>\r\n                        </div>\r\n                    </div>\r\n                </div>\r\n            </div>\r\n    </form>\r\n    <script type="text/javascript">\r\n\r\n        function zyover(obj) {\r\n            void (null);\r\n            obj.parentNode.style.zIndex = \'999\';\r\n            var div = obj.parentNode.getElementsByTagName(\'div\');\r\n            var count = div.length;\r\n            if (count > 0) {\r\n                div[0].style.display = \'block\';\r\n            }\r\n            return false;\r\n        }\r\n\r\n        function zyout(obj) {\r\n            void (null);\r\n            obj.parentNode.style.zIndex = \'1\';\r\n            var div = obj.parentNode.getElementsByTagName(\'div\');\r\n            var count = div.length;\r\n            if (count > 0) {\r\n                div[0].style.display = \'none\';\r\n            }\r\n        }\r\n\r\n        function setIframeHeight(id) {\r\n            try {\r\n                var iframe = document.getElementById(id);\r\n                if (iframe.attachEvent) {\r\n                    iframe.attachEvent("onload", function () {\r\n                        iframe.height = iframe.contentWindow.document.documentElement.scrollHeight;\r\n                    });\r\n                    return;\r\n                } else {\r\n                    iframe.onload = function () {\r\n                        iframe.height = iframe.contentDocument.body.scrollHeight;\r\n                    };\r\n                    return;\r\n                }\r\n            } catch (e) {\r\n                throw new Error(\'setIframeHeight Error\');\r\n            }\r\n        }\r\n\r\n        function iframeResize(iframe) {\r\n            try {\r\n                //var iframe = document.getElementById("contentFrame"); //("contentFrame");\r\n                var idocumentElement = iframe.contentWindow.document.documentElement;\r\n                if (idocumentElement.scrollHeight > 240) {\r\n                    iframe.height -= 5;\r\n                    iframe.height = idocumentElement.scrollHeight;\r\n                }\r\n                else {\r\n                    iframe.height = 240;\r\n                }\r\n            }\r\n            catch (e) {\r\n                window.status = \'Error: \' + e.number + \'; \' + e.description;\r\n            }\r\n        }\r\n\r\n\r\n        function bmnumber() {\r\n            var urlOne = "http://www1.rmfysszc.gov.cn/CourtGetIndex.aspx?fid=91";\r\n            var pid = \'463589\';\r\n            $.ajax({\r\n                type: "get",\r\n                url: urlOne,\r\n                data: { pid: \'1\' },\r\n                dataType: "jsonp",\r\n                jsonp: "jsoncallback",\r\n                beforeSend: function (data, http) {\r\n\r\n                },\r\n                success: function (data) {\r\n                    var number = data.Number;\r\n                    if (number >= 1 && number <= 4) {\r\n                    }\r\n                    if (number == 0) {\r\n                        $("#Con3").css("display", "none");\r\n                    }\r\n                    $("#begin").html(data.Count);\r\n                }\r\n            });\r\n        }\r\n\r\n\r\n        function bmnumber1() {\r\n            var urlOne = "http://www1.rmfysszc.gov.cn/CourtGetIndex1.aspx?fid=91";\r\n            var pid = \'463589\';\r\n            $.ajax({\r\n                type: "get",\r\n                url: urlOne,\r\n                data: { pid: \'1\' },\r\n                dataType: "jsonp",\r\n                jsonp: "jsoncallback",\r\n                beforeSend: function (data, http) {\r\n\r\n                },\r\n                success: function (data) {\r\n                    var number = data.Number;\r\n                    if (number >= 1 && number <= 4) {\r\n                    }\r\n                    if (number == 0) {\r\n                        $("#Con2").css("display", "none");\r\n                    }\r\n                    $("#begin1").html(data.Count);\r\n                }\r\n            });\r\n        }\r\n\r\n\r\n        var show = 0;\r\n        $(window).scroll(function () {\r\n            if (show != 1) {\r\n                bmnumber();\r\n                bmnumber1();\r\n            }\r\n            show = 1;\r\n        });\r\n        window.onload = function () {\r\n                bmnumber();\r\n                bmnumber1();\r\n        };\r\n\r\n\r\n        var src4;\r\n        $(".nav").hover(function () {\r\n            var index = $(".nav").index(this);\r\n            if (index == 0) {\r\n\r\n            } else {\r\n                var str = $(this).attr("src");\r\n                src4 = str;\r\n                var src1 = str.substr(0, str.length - 4);\r\n                var src = src1 + "\xe7\x82\xb9\xe5\x87\xbb.png";\r\n                $(this).attr("src", src);\r\n            }\r\n        }, function () {\r\n            var index1 = $(".nav").index(this);\r\n            if (index1 == 0) {\r\n\r\n            } else {\r\n                $(this).attr("src", src4);\r\n            }\r\n        })\r\n        function rm_gzgsdetails(g_id) {\r\n            var url = "http://www1.rmfysszc.gov.cn/Agency/details/" + g_id + ".shtml";\r\n            window.open(url, "_blank");\r\n        }\r\n\r\n    </script>\r\n</body>\r\n</html>'
p3
scdatetime
datetime
p4
(S'\x07\xe2\x04\x0b\x01,\x14\x00\xf0\xd1'
p5
tp6
Rp7
tp8
.